; Function Attrs: mustprogress nofree nounwind willreturn memory(argmem: read) uwtable
define noundef i32 @_Z18coco_string_lengthPKw(ptr noundef readonly %0) local_unnamed_addr #7 {
  %.not = icmp eq ptr %0, null
  br i1 %.not, label %5, label %2

2:                                                ; preds = %1
  %3 = tail call i64 @wcslen(ptr noundef nonnull %0) #24
  %4 = trunc i64 %3 to i32
  br label %5

5:                                                ; preds = %1, %2
  %.0 = phi i32 [ %4, %2 ], [ 0, %1 ]
  ret i32 %.0
}